; Function Attrs: nounwind uwtable
define noalias noundef ptr @Llb_ManCutRange(ptr noundef %0, ptr noundef readonly captures(none) %1, ptr noundef readonly captures(none) %2) local_unnamed_addr #0 {
  tail call void @Aig_ManIncrementTravId(ptr noundef %0) #22
  %4 = getelementptr i8, ptr %1, i64 4
  %.val21 = load i32, ptr %4, align 4, !tbaa !10
  %5 = icmp sgt i32 %.val21, 0
  br i1 %5, label %.lr.ph, label %.critedge

.lr.ph:                                           ; preds = %3
  %6 = getelementptr i8, ptr %1, i64 8
  %.val19 = load ptr, ptr %6, align 8, !tbaa !9
  %7 = getelementptr i8, ptr %0, i64 312
  %.val22 = load i32, ptr %7, align 8, !tbaa !14
  %wide.trip.count = zext nneg i32 %.val21 to i64
  br label %8

8:                                                ; preds = %.lr.ph, %8
  %indvars.iv = phi i64 [ 0, %.lr.ph ], [ %indvars.iv.next, %8 ]
  %9 = getelementptr inbounds nuw ptr, ptr %.val19, i64 %indvars.iv
  %10 = load ptr, ptr %9, align 8, !tbaa !11
  %11 = getelementptr inbounds nuw i8, ptr %10, i64 32
  store i32 %.val22, ptr %11, align 8, !tbaa !28
  %indvars.iv.next = add nuw nsw i64 %indvars.iv, 1
  %exitcond.not = icmp eq i64 %indvars.iv.next, %wide.trip.count
  br i1 %exitcond.not, label %.critedge, label %8, !llvm.loop !67

.critedge:                                        ; preds = %8, %3
  %12 = tail call noalias dereferenceable_or_null(16) ptr @malloc(i64 noundef 16) #20
  %13 = getelementptr inbounds nuw i8, ptr %12, i64 4
  store i32 0, ptr %13, align 4, !tbaa !10
  store i32 100, ptr %12, align 8, !tbaa !3
  %14 = tail call noalias dereferenceable_or_null(800) ptr @malloc(i64 noundef 800) #20
  %15 = getelementptr inbounds nuw i8, ptr %12, i64 8
  store ptr %14, ptr %15, align 8, !tbaa !9
  %16 = getelementptr i8, ptr %2, i64 4
  %.val2026 = load i32, ptr %16, align 4, !tbaa !10
  %17 = icmp sgt i32 %.val2026, 0
  br i1 %17, label %.lr.ph28, label %.critedge2

.lr.ph28:                                         ; preds = %.critedge
  %18 = getelementptr i8, ptr %2, i64 8
  %19 = getelementptr i8, ptr %0, i64 312
  br label %20

20:                                               ; preds = %.lr.ph28, %53
  %.val2033 = phi i32 [ %.val2026, %.lr.ph28 ], [ %.val20, %53 ]
  %21 = phi i32 [ 100, %.lr.ph28 ], [ %54, %53 ]
  %22 = phi i32 [ 0, %.lr.ph28 ], [ %55, %53 ]
  %indvars.iv30 = phi i64 [ 0, %.lr.ph28 ], [ %indvars.iv.next31, %53 ]
  %.val = load ptr, ptr %18, align 8, !tbaa !9
  %23 = getelementptr inbounds nuw ptr, ptr %.val, i64 %indvars.iv30
  %24 = load ptr, ptr %23, align 8, !tbaa !11
  %.val23 = load i32, ptr %19, align 8, !tbaa !14
  %25 = getelementptr i8, ptr %24, i64 32
  %.val24 = load i32, ptr %25, align 8, !tbaa !28
  %.not = icmp eq i32 %.val24, %.val23
  br i1 %.not, label %53, label %26

26:                                               ; preds = %20
  %27 = icmp eq i32 %22, %21
  br i1 %27, label %28, label %.Vec_PtrGrow.exit11_crit_edge.i

.Vec_PtrGrow.exit11_crit_edge.i:                  ; preds = %26
  %.pre.i = load ptr, ptr %15, align 8, !tbaa !9
  br label %Vec_PtrPush.exit

28:                                               ; preds = %26
  %29 = icmp slt i32 %21, 16
  br i1 %29, label %30, label %37

30:                                               ; preds = %28
  %31 = load ptr, ptr %15, align 8, !tbaa !9
  %.not9.i.i = icmp eq ptr %31, null
  br i1 %.not9.i.i, label %34, label %32

32:                                               ; preds = %30
  %33 = tail call dereferenceable_or_null(128) ptr @realloc(ptr noundef nonnull %31, i64 noundef 128) #21
  br label %Vec_PtrGrow.exit.i

34:                                               ; preds = %30
  %35 = tail call noalias dereferenceable_or_null(128) ptr @malloc(i64 noundef 128) #20
  br label %Vec_PtrGrow.exit.i

Vec_PtrGrow.exit.i:                               ; preds = %34, %32
  %36 = phi ptr [ %33, %32 ], [ %35, %34 ]
  store ptr %36, ptr %15, align 8, !tbaa !9
  store i32 16, ptr %12, align 8, !tbaa !3
  br label %Vec_PtrPush.exit

37:                                               ; preds = %28
  %38 = shl nuw nsw i32 %21, 1
  %39 = load ptr, ptr %15, align 8, !tbaa !9
  %.not9.i10.i = icmp eq ptr %39, null
  %40 = zext nneg i32 %38 to i64
  %41 = shl nuw nsw i64 %40, 3
  br i1 %.not9.i10.i, label %44, label %42

42:                                               ; preds = %37
  %43 = tail call ptr @realloc(ptr noundef nonnull %39, i64 noundef %41) #21
  br label %46

44:                                               ; preds = %37
  %45 = tail call noalias ptr @malloc(i64 noundef %41) #20
  br label %46

46:                                               ; preds = %44, %42
  %47 = phi ptr [ %43, %42 ], [ %45, %44 ]
  store ptr %47, ptr %15, align 8, !tbaa !9
  store i32 %38, ptr %12, align 8, !tbaa !3
  br label %Vec_PtrPush.exit

Vec_PtrPush.exit:                                 ; preds = %.Vec_PtrGrow.exit11_crit_edge.i, %Vec_PtrGrow.exit.i, %46
  %48 = phi i32 [ %21, %.Vec_PtrGrow.exit11_crit_edge.i ], [ %38, %46 ], [ 16, %Vec_PtrGrow.exit.i ]
  %49 = phi ptr [ %.pre.i, %.Vec_PtrGrow.exit11_crit_edge.i ], [ %47, %46 ], [ %36, %Vec_PtrGrow.exit.i ]
  %50 = add nsw i32 %22, 1
  store i32 %50, ptr %13, align 4, !tbaa !10
  %51 = sext i32 %22 to i64
  %52 = getelementptr inbounds ptr, ptr %49, i64 %51
  store ptr %24, ptr %52, align 8, !tbaa !11
  %.val20.pre = load i32, ptr %16, align 4, !tbaa !10
  br label %53

53:                                               ; preds = %20, %Vec_PtrPush.exit
  %.val20 = phi i32 [ %.val2033, %20 ], [ %.val20.pre, %Vec_PtrPush.exit ]
  %54 = phi i32 [ %21, %20 ], [ %48, %Vec_PtrPush.exit ]
  %55 = phi i32 [ %22, %20 ], [ %50, %Vec_PtrPush.exit ]
  %indvars.iv.next31 = add nuw nsw i64 %indvars.iv30, 1
  %56 = sext i32 %.val20 to i64
  %57 = icmp slt i64 %indvars.iv.next31, %56
  br i1 %57, label %20, label %.critedge2, !llvm.loop !68

.critedge2:                                       ; preds = %53, %.critedge
  ret ptr %12
}